target datalayout = "e-m:e-p270:32:32-p271:32:32-p272:64:64-i64:64-i128:128-f80:128-n8:16:32:64-S128"
target triple = "x86_64-pc-linux-gnu"

%struct.Abc_Cex_t_ = type { i32, i32, i32, i32, i32, [0 x i32] }

@.str.5 = private unnamed_addr constant [30 x i8] c"The counter example is NULL.\0A\00", align 1
@.str.6 = private unnamed_addr constant [75 x i8] c"The counter example is present but not available (pointer has value \221\22).\0A\00", align 1
@.str.7 = private unnamed_addr constant [74 x i8] c"CEX: Po =%4d  Frame =%4d  FF = %d  PI = %d  Bit =%8d  1s =%8d (%5.2f %%)\0A\00", align 1
@.str.10 = private unnamed_addr constant [2 x i8] c"\0A\00", align 1
@.str.11 = private unnamed_addr constant [12 x i8] c"State    : \00", align 1
@.str.12 = private unnamed_addr constant [3 x i8] c"%d\00", align 1
@.str.13 = private unnamed_addr constant [13 x i8] c"Frame %3d : \00", align 1

; Function Attrs: inlinehint nounwind uwtable
define internal i32 @Abc_InfoHasBit(ptr noundef %0, i32 noundef %1) #2 {
  %3 = alloca ptr, align 8
  %4 = alloca i32, align 4
  store ptr %0, ptr %3, align 8, !tbaa !16
  store i32 %1, ptr %4, align 4, !tbaa !3
  %5 = load ptr, ptr %3, align 8, !tbaa !16
  %6 = load i32, ptr %4, align 4, !tbaa !3
  %7 = ashr i32 %6, 5
  %8 = sext i32 %7 to i64
  %9 = getelementptr inbounds i32, ptr %5, i64 %8
  %10 = load i32, ptr %9, align 4, !tbaa !3
  %11 = load i32, ptr %4, align 4, !tbaa !3
  %12 = and i32 %11, 31
  %13 = shl i32 1, %12
  %14 = and i32 %10, %13
  %15 = icmp ugt i32 %14, 0
  %16 = zext i1 %15 to i32
  ret i32 %16
}

; Function Attrs: nounwind uwtable
define void @Abc_CexPrintStats(ptr noundef %0) #0 {
  %2 = alloca ptr, align 8
  %3 = alloca i32, align 4
  %4 = alloca i32, align 4
  %5 = alloca i32, align 4
  store ptr %0, ptr %2, align 8, !tbaa !7
  call void @llvm.lifetime.start.p0(i64 4, ptr %3) #8
  call void @llvm.lifetime.start.p0(i64 4, ptr %4) #8
  store i32 0, ptr %4, align 4, !tbaa !3
  %6 = load ptr, ptr %2, align 8, !tbaa !7
  %7 = icmp eq ptr %6, null
  br i1 %7, label %8, label %10

8:                                                ; preds = %1
  %9 = call i32 (ptr, ...) @printf(ptr noundef @.str.5)
  store i32 1, ptr %5, align 4
  br label %63

10:                                               ; preds = %1
  %11 = load ptr, ptr %2, align 8, !tbaa !7
  %12 = icmp eq ptr %11, inttoptr (i64 1 to ptr)
  br i1 %12, label %13, label %15

13:                                               ; preds = %10
  %14 = call i32 (ptr, ...) @printf(ptr noundef @.str.6)
  store i32 1, ptr %5, align 4
  br label %63

15:                                               ; preds = %10
  store i32 0, ptr %3, align 4, !tbaa !3
  br label %16

16:                                               ; preds = %30, %15
  %17 = load i32, ptr %3, align 4, !tbaa !3
  %18 = load ptr, ptr %2, align 8, !tbaa !7
  %19 = getelementptr inbounds nuw %struct.Abc_Cex_t_, ptr %18, i32 0, i32 4
  %20 = load i32, ptr %19, align 4, !tbaa !13
  %21 = icmp slt i32 %17, %20
  br i1 %21, label %22, label %33

22:                                               ; preds = %16
  %23 = load ptr, ptr %2, align 8, !tbaa !7
  %24 = getelementptr inbounds nuw %struct.Abc_Cex_t_, ptr %23, i32 0, i32 5
  %25 = getelementptr inbounds [0 x i32], ptr %24, i64 0, i64 0
  %26 = load i32, ptr %3, align 4, !tbaa !3
  %27 = call i32 @Abc_InfoHasBit(ptr noundef %25, i32 noundef %26)
  %28 = load i32, ptr %4, align 4, !tbaa !3
  %29 = add nsw i32 %28, %27
  store i32 %29, ptr %4, align 4, !tbaa !3
  br label %30

30:                                               ; preds = %22
  %31 = load i32, ptr %3, align 4, !tbaa !3
  %32 = add nsw i32 %31, 1
  store i32 %32, ptr %3, align 4, !tbaa !3
  br label %16, !llvm.loop !30

33:                                               ; preds = %16
  %34 = load ptr, ptr %2, align 8, !tbaa !7
  %35 = getelementptr inbounds nuw %struct.Abc_Cex_t_, ptr %34, i32 0, i32 0
  %36 = load i32, ptr %35, align 4, !tbaa !14
  %37 = load ptr, ptr %2, align 8, !tbaa !7
  %38 = getelementptr inbounds nuw %struct.Abc_Cex_t_, ptr %37, i32 0, i32 1
  %39 = load i32, ptr %38, align 4, !tbaa !15
  %40 = load ptr, ptr %2, align 8, !tbaa !7
  %41 = getelementptr inbounds nuw %struct.Abc_Cex_t_, ptr %40, i32 0, i32 2
  %42 = load i32, ptr %41, align 4, !tbaa !10
  %43 = load ptr, ptr %2, align 8, !tbaa !7
  %44 = getelementptr inbounds nuw %struct.Abc_Cex_t_, ptr %43, i32 0, i32 3
  %45 = load i32, ptr %44, align 4, !tbaa !12
  %46 = load ptr, ptr %2, align 8, !tbaa !7
  %47 = getelementptr inbounds nuw %struct.Abc_Cex_t_, ptr %46, i32 0, i32 4
  %48 = load i32, ptr %47, align 4, !tbaa !13
  %49 = load i32, ptr %4, align 4, !tbaa !3
  %50 = load i32, ptr %4, align 4, !tbaa !3
  %51 = sitofp i32 %50 to double
  %52 = fmul double 1.000000e+02, %51
  %53 = load ptr, ptr %2, align 8, !tbaa !7
  %54 = getelementptr inbounds nuw %struct.Abc_Cex_t_, ptr %53, i32 0, i32 4
  %55 = load i32, ptr %54, align 4, !tbaa !13
  %56 = load ptr, ptr %2, align 8, !tbaa !7
  %57 = getelementptr inbounds nuw %struct.Abc_Cex_t_, ptr %56, i32 0, i32 2
  %58 = load i32, ptr %57, align 4, !tbaa !10
  %59 = sub nsw i32 %55, %58
  %60 = sitofp i32 %59 to double
  %61 = fdiv double %52, %60
  %62 = call i32 (ptr, ...) @printf(ptr noundef @.str.7, i32 noundef %36, i32 noundef %39, i32 noundef %42, i32 noundef %45, i32 noundef %48, i32 noundef %49, double noundef %61)
  store i32 0, ptr %5, align 4
  br label %63

63:                                               ; preds = %33, %13, %8
  call void @llvm.lifetime.end.p0(i64 4, ptr %4) #8
  call void @llvm.lifetime.end.p0(i64 4, ptr %3) #8
  %64 = load i32, ptr %5, align 4
  switch i32 %64, label %66 [
    i32 0, label %65
    i32 1, label %65
  ]

65:                                               ; preds = %63, %63
  ret void

66:                                               ; preds = %63
  unreachable
}

; Function Attrs: nounwind uwtable
define void @Abc_CexPrint(ptr noundef %0) #0 {
  %2 = alloca ptr, align 8
  %3 = alloca i32, align 4
  %4 = alloca i32, align 4
  %5 = alloca i32, align 4
  %6 = alloca i32, align 4
  store ptr %0, ptr %2, align 8, !tbaa !7
  call void @llvm.lifetime.start.p0(i64 4, ptr %3) #8
  call void @llvm.lifetime.start.p0(i64 4, ptr %4) #8
  call void @llvm.lifetime.start.p0(i64 4, ptr %5) #8
  %7 = load ptr, ptr %2, align 8, !tbaa !7
  %8 = icmp eq ptr %7, null
  br i1 %8, label %9, label %11

9:                                                ; preds = %1
  %10 = call i32 (ptr, ...) @printf(ptr noundef @.str.5)
  store i32 1, ptr %6, align 4
  br label %69

11:                                               ; preds = %1
  %12 = load ptr, ptr %2, align 8, !tbaa !7
  %13 = icmp eq ptr %12, inttoptr (i64 1 to ptr)
  br i1 %13, label %14, label %16

14:                                               ; preds = %11
  %15 = call i32 (ptr, ...) @printf(ptr noundef @.str.6)
  store i32 1, ptr %6, align 4
  br label %69

16:                                               ; preds = %11
  %17 = load ptr, ptr %2, align 8, !tbaa !7
  call void @Abc_CexPrintStats(ptr noundef %17)
  %18 = call i32 (ptr, ...) @printf(ptr noundef @.str.11)
  store i32 0, ptr %5, align 4, !tbaa !3
  br label %19

19:                                               ; preds = %32, %16
  %20 = load i32, ptr %5, align 4, !tbaa !3
  %21 = load ptr, ptr %2, align 8, !tbaa !7
  %22 = getelementptr inbounds nuw %struct.Abc_Cex_t_, ptr %21, i32 0, i32 2
  %23 = load i32, ptr %22, align 4, !tbaa !10
  %24 = icmp slt i32 %20, %23
  br i1 %24, label %25, label %35

25:                                               ; preds = %19
  %26 = load ptr, ptr %2, align 8, !tbaa !7
  %27 = getelementptr inbounds nuw %struct.Abc_Cex_t_, ptr %26, i32 0, i32 5
  %28 = getelementptr inbounds [0 x i32], ptr %27, i64 0, i64 0
  %29 = load i32, ptr %5, align 4, !tbaa !3
  %30 = call i32 @Abc_InfoHasBit(ptr noundef %28, i32 noundef %29)
  %31 = call i32 (ptr, ...) @printf(ptr noundef @.str.12, i32 noundef %30)
  br label %32

32:                                               ; preds = %25
  %33 = load i32, ptr %5, align 4, !tbaa !3
  %34 = add nsw i32 %33, 1
  store i32 %34, ptr %5, align 4, !tbaa !3
  br label %19, !llvm.loop !32

35:                                               ; preds = %19
  %36 = call i32 (ptr, ...) @printf(ptr noundef @.str.10)
  store i32 0, ptr %4, align 4, !tbaa !3
  br label %37

37:                                               ; preds = %65, %35
  %38 = load i32, ptr %4, align 4, !tbaa !3
  %39 = load ptr, ptr %2, align 8, !tbaa !7
  %40 = getelementptr inbounds nuw %struct.Abc_Cex_t_, ptr %39, i32 0, i32 1
  %41 = load i32, ptr %40, align 4, !tbaa !15
  %42 = icmp sle i32 %38, %41
  br i1 %42, label %43, label %68

43:                                               ; preds = %37
  %44 = load i32, ptr %4, align 4, !tbaa !3
  %45 = call i32 (ptr, ...) @printf(ptr noundef @.str.13, i32 noundef %44)
  store i32 0, ptr %3, align 4, !tbaa !3
  br label %46

46:                                               ; preds = %60, %43
  %47 = load i32, ptr %3, align 4, !tbaa !3
  %48 = load ptr, ptr %2, align 8, !tbaa !7
  %49 = getelementptr inbounds nuw %struct.Abc_Cex_t_, ptr %48, i32 0, i32 3
  %50 = load i32, ptr %49, align 4, !tbaa !12
  %51 = icmp slt i32 %47, %50
  br i1 %51, label %52, label %63

52:                                               ; preds = %46
  %53 = load ptr, ptr %2, align 8, !tbaa !7
  %54 = getelementptr inbounds nuw %struct.Abc_Cex_t_, ptr %53, i32 0, i32 5
  %55 = getelementptr inbounds [0 x i32], ptr %54, i64 0, i64 0
  %56 = load i32, ptr %5, align 4, !tbaa !3
  %57 = add nsw i32 %56, 1
  store i32 %57, ptr %5, align 4, !tbaa !3
  %58 = call i32 @Abc_InfoHasBit(ptr noundef %55, i32 noundef %56)
  %59 = call i32 (ptr, ...) @printf(ptr noundef @.str.12, i32 noundef %58)
  br label %60

60:                                               ; preds = %52
  %61 = load i32, ptr %3, align 4, !tbaa !3
  %62 = add nsw i32 %61, 1
  store i32 %62, ptr %3, align 4, !tbaa !3
  br label %46, !llvm.loop !33

63:                                               ; preds = %46
  %64 = call i32 (ptr, ...) @printf(ptr noundef @.str.10)
  br label %65

65:                                               ; preds = %63
  %66 = load i32, ptr %4, align 4, !tbaa !3
  %67 = add nsw i32 %66, 1
  store i32 %67, ptr %4, align 4, !tbaa !3
  br label %37, !llvm.loop !34

68:                                               ; preds = %37
  store i32 0, ptr %6, align 4
  br label %69

69:                                               ; preds = %68, %14, %9
  call void @llvm.lifetime.end.p0(i64 4, ptr %5) #8
  call void @llvm.lifetime.end.p0(i64 4, ptr %4) #8
  call void @llvm.lifetime.end.p0(i64 4, ptr %3) #8
  %70 = load i32, ptr %6, align 4
  switch i32 %70, label %72 [
    i32 0, label %71
    i32 1, label %71
  ]

71:                                               ; preds = %69, %69
  ret void

72:                                               ; preds = %69
  unreachable
}