; Function Attrs: nofree nounwind uwtable
define void @Abc_CexPrint(ptr noundef %0) local_unnamed_addr #4 {
  %magicptr = ptrtoint ptr %0 to i64
  switch i64 %magicptr, label %.preheader.i [
    i64 0, label %.loopexit.sink.split
    i64 1, label %2
  ]

2:                                                ; preds = %1
  br label %.loopexit.sink.split

.preheader.i:                                     ; preds = %1
  %3 = getelementptr inbounds nuw i8, ptr %0, i64 16
  %4 = load i32, ptr %3, align 4, !tbaa !9
  %5 = icmp sgt i32 %4, 0
  br i1 %5, label %.lr.ph.i, label %._crit_edge.i

.lr.ph.i:                                         ; preds = %.preheader.i
  %6 = getelementptr inbounds nuw i8, ptr %0, i64 20
  br label %7

7:                                                ; preds = %7, %.lr.ph.i
  %.021.i = phi i32 [ 0, %.lr.ph.i ], [ %15, %7 ]
  %.01620.i = phi i32 [ 0, %.lr.ph.i ], [ %16, %7 ]
  %8 = lshr i32 %.01620.i, 5
  %9 = zext nneg i32 %8 to i64
  %10 = getelementptr inbounds nuw i32, ptr %6, i64 %9
  %11 = load i32, ptr %10, align 4, !tbaa !12
  %12 = and i32 %.01620.i, 31
  %13 = lshr i32 %11, %12
  %14 = and i32 %13, 1
  %15 = add nuw nsw i32 %14, %.021.i
  %16 = add nuw nsw i32 %.01620.i, 1
  %exitcond.not.i = icmp eq i32 %16, %4
  br i1 %exitcond.not.i, label %._crit_edge.i, label %7, !llvm.loop !25

._crit_edge.i:                                    ; preds = %7, %.preheader.i
  %.0.lcssa.i = phi i32 [ 0, %.preheader.i ], [ %15, %7 ]
  %17 = load i32, ptr %0, align 4, !tbaa !10
  %18 = getelementptr inbounds nuw i8, ptr %0, i64 4
  %19 = load i32, ptr %18, align 4, !tbaa !11
  %20 = getelementptr inbounds nuw i8, ptr %0, i64 8
  %21 = load i32, ptr %20, align 4, !tbaa !3
  %22 = getelementptr inbounds nuw i8, ptr %0, i64 12
  %23 = load i32, ptr %22, align 4, !tbaa !8
  %24 = uitofp nneg i32 %.0.lcssa.i to double
  %25 = fmul double %24, 1.000000e+02
  %26 = sub nsw i32 %4, %21
  %27 = sitofp i32 %26 to double
  %28 = fdiv double %25, %27
  %29 = tail call i32 (ptr, ...) @printf(ptr noundef nonnull dereferenceable(1) @.str.7, i32 noundef %17, i32 noundef %19, i32 noundef %21, i32 noundef %23, i32 noundef %4, i32 noundef %.0.lcssa.i, double noundef %28)
  %30 = tail call i32 (ptr, ...) @printf(ptr noundef nonnull dereferenceable(1) @.str.11)
  %31 = load i32, ptr %20, align 4, !tbaa !3
  %32 = icmp sgt i32 %31, 0
  br i1 %32, label %.lr.ph, label %._crit_edge

.lr.ph:                                           ; preds = %._crit_edge.i
  %33 = getelementptr inbounds nuw i8, ptr %0, i64 20
  br label %34

34:                                               ; preds = %.lr.ph, %34
  %.021 = phi i32 [ 0, %.lr.ph ], [ %43, %34 ]
  %35 = lshr i32 %.021, 5
  %36 = zext nneg i32 %35 to i64
  %37 = getelementptr inbounds nuw i32, ptr %33, i64 %36
  %38 = load i32, ptr %37, align 4, !tbaa !12
  %39 = and i32 %.021, 31
  %40 = lshr i32 %38, %39
  %41 = and i32 %40, 1
  %42 = tail call i32 (ptr, ...) @printf(ptr noundef nonnull dereferenceable(1) @.str.12, i32 noundef %41)
  %43 = add nuw nsw i32 %.021, 1
  %44 = load i32, ptr %20, align 4, !tbaa !3
  %45 = icmp slt i32 %43, %44
  br i1 %45, label %34, label %._crit_edge, !llvm.loop !27

._crit_edge:                                      ; preds = %34, %._crit_edge.i
  %.0.lcssa = phi i32 [ 0, %._crit_edge.i ], [ %43, %34 ]
  %putchar = tail call i32 @putchar(i32 10)
  %46 = load i32, ptr %18, align 4, !tbaa !11
  %.not28 = icmp slt i32 %46, 0
  br i1 %.not28, label %.loopexit, label %.lr.ph32

.lr.ph32:                                         ; preds = %._crit_edge
  %47 = getelementptr inbounds nuw i8, ptr %0, i64 20
  br label %48

48:                                               ; preds = %.lr.ph32, %._crit_edge26
  %.130 = phi i32 [ %.0.lcssa, %.lr.ph32 ], [ %.2.lcssa, %._crit_edge26 ]
  %.01629 = phi i32 [ 0, %.lr.ph32 ], [ %64, %._crit_edge26 ]
  %49 = tail call i32 (ptr, ...) @printf(ptr noundef nonnull dereferenceable(1) @.str.13, i32 noundef %.01629)
  %50 = load i32, ptr %22, align 4, !tbaa !8
  %51 = icmp sgt i32 %50, 0
  br i1 %51, label %.lr.ph25, label %._crit_edge26

.lr.ph25:                                         ; preds = %48, %.lr.ph25
  %.223 = phi i32 [ %52, %.lr.ph25 ], [ %.130, %48 ]
  %.01722 = phi i32 [ %61, %.lr.ph25 ], [ 0, %48 ]
  %52 = add nsw i32 %.223, 1
  %53 = ashr i32 %.223, 5
  %54 = sext i32 %53 to i64
  %55 = getelementptr inbounds i32, ptr %47, i64 %54
  %56 = load i32, ptr %55, align 4, !tbaa !12
  %57 = and i32 %.223, 31
  %58 = lshr i32 %56, %57
  %59 = and i32 %58, 1
  %60 = tail call i32 (ptr, ...) @printf(ptr noundef nonnull dereferenceable(1) @.str.12, i32 noundef %59)
  %61 = add nuw nsw i32 %.01722, 1
  %62 = load i32, ptr %22, align 4, !tbaa !8
  %63 = icmp slt i32 %61, %62
  br i1 %63, label %.lr.ph25, label %._crit_edge26, !llvm.loop !28

._crit_edge26:                                    ; preds = %.lr.ph25, %48
  %.2.lcssa = phi i32 [ %.130, %48 ], [ %52, %.lr.ph25 ]
  %putchar19 = tail call i32 @putchar(i32 10)
  %64 = add nuw nsw i32 %.01629, 1
  %65 = load i32, ptr %18, align 4, !tbaa !11
  %.not.not = icmp slt i32 %.01629, %65
  br i1 %.not.not, label %48, label %.loopexit, !llvm.loop !29

.loopexit.sink.split:                             ; preds = %1, %2
  %str.6.sink = phi ptr [ @str.6, %2 ], [ @str.7, %1 ]
  %puts = tail call i32 @puts(ptr nonnull dereferenceable(1) %str.6.sink)
  br label %.loopexit

.loopexit:                                        ; preds = %._crit_edge26, %.loopexit.sink.split, %._crit_edge
  ret void
}